target datalayout = "e-m:e-p270:32:32-p271:32:32-p272:64:64-i64:64-i128:128-f80:128-n8:16:32:64-S128"
target triple = "x86_64-pc-linux-gnu"

%struct.VP8LHistogramSet = type { i32, i32, ptr }
%struct.HuffmanTreeCode = type { i32, ptr, ptr }
%struct.VP8LHistogram = type { ptr, [256 x i32], [256 x i32], [256 x i32], [40 x i32], i32, i32, i64, i64, i64, i64, [5 x i8] }

; Function Attrs: inlinehint nounwind uwtable
define internal i32 @VP8LHistogramNumCodes(i32 noundef %0) #3 {
  %2 = alloca i32, align 4
  store i32 %0, ptr %2, align 4, !tbaa !11
  %3 = load i32, ptr %2, align 4, !tbaa !11
  %4 = icmp sgt i32 %3, 0
  br i1 %4, label %5, label %8

5:                                                ; preds = %1
  %6 = load i32, ptr %2, align 4, !tbaa !11
  %7 = shl i32 1, %6
  br label %9

8:                                                ; preds = %1
  br label %9

9:                                                ; preds = %8, %5
  %10 = phi i32 [ %7, %5 ], [ 0, %8 ]
  %11 = add nsw i32 280, %10
  ret i32 %11
}

; Function Attrs: nounwind uwtable
define internal i32 @GetHuffBitLengthsAndCodes(ptr noundef %0, ptr noundef %1) #0 {
  %3 = alloca i32, align 4
  %4 = alloca ptr, align 8
  %5 = alloca ptr, align 8
  %6 = alloca i32, align 4
  %7 = alloca i32, align 4
  %8 = alloca i32, align 4
  %9 = alloca i64, align 8
  %10 = alloca ptr, align 8
  %11 = alloca i32, align 4
  %12 = alloca i32, align 4
  %13 = alloca ptr, align 8
  %14 = alloca ptr, align 8
  %15 = alloca ptr, align 8
  %16 = alloca ptr, align 8
  %17 = alloca i32, align 4
  %18 = alloca ptr, align 8
  %19 = alloca ptr, align 8
  %20 = alloca i32, align 4
  %21 = alloca i32, align 4
  %22 = alloca ptr, align 8
  %23 = alloca ptr, align 8
  store ptr %0, ptr %4, align 8, !tbaa !10
  store ptr %1, ptr %5, align 8, !tbaa !10
  call void @llvm.lifetime.start.p0(i64 4, ptr %6) #7
  call void @llvm.lifetime.start.p0(i64 4, ptr %7) #7
  call void @llvm.lifetime.start.p0(i64 4, ptr %8) #7
  store i32 0, ptr %8, align 4, !tbaa !11
  call void @llvm.lifetime.start.p0(i64 8, ptr %9) #7
  store i64 0, ptr %9, align 8, !tbaa !79
  call void @llvm.lifetime.start.p0(i64 8, ptr %10) #7
  store ptr null, ptr %10, align 8, !tbaa !81
  call void @llvm.lifetime.start.p0(i64 4, ptr %11) #7
  %24 = load ptr, ptr %4, align 8, !tbaa !10
  %25 = getelementptr inbounds nuw %struct.VP8LHistogramSet, ptr %24, i32 0, i32 0
  %26 = load i32, ptr %25, align 8, !tbaa !132
  store i32 %26, ptr %11, align 4, !tbaa !11
  call void @llvm.lifetime.start.p0(i64 4, ptr %12) #7
  store i32 0, ptr %12, align 4, !tbaa !11
  call void @llvm.lifetime.start.p0(i64 8, ptr %13) #7
  store ptr null, ptr %13, align 8, !tbaa !81
  call void @llvm.lifetime.start.p0(i64 8, ptr %14) #7
  store ptr null, ptr %14, align 8, !tbaa !10
  store i32 0, ptr %6, align 4, !tbaa !11
  br label %27

27:                                               ; preds = %75, %2
  %28 = load i32, ptr %6, align 4, !tbaa !11
  %29 = load i32, ptr %11, align 4, !tbaa !11
  %30 = icmp slt i32 %28, %29
  br i1 %30, label %31, label %78

31:                                               ; preds = %27
  call void @llvm.lifetime.start.p0(i64 8, ptr %15) #7
  %32 = load ptr, ptr %4, align 8, !tbaa !10
  %33 = getelementptr inbounds nuw %struct.VP8LHistogramSet, ptr %32, i32 0, i32 2
  %34 = load ptr, ptr %33, align 8, !tbaa !143
  %35 = load i32, ptr %6, align 4, !tbaa !11
  %36 = sext i32 %35 to i64
  %37 = getelementptr inbounds ptr, ptr %34, i64 %36
  %38 = load ptr, ptr %37, align 8, !tbaa !10
  store ptr %38, ptr %15, align 8, !tbaa !10
  call void @llvm.lifetime.start.p0(i64 8, ptr %16) #7
  %39 = load ptr, ptr %5, align 8, !tbaa !10
  %40 = load i32, ptr %6, align 4, !tbaa !11
  %41 = mul nsw i32 5, %40
  %42 = sext i32 %41 to i64
  %43 = getelementptr inbounds %struct.HuffmanTreeCode, ptr %39, i64 %42
  store ptr %43, ptr %16, align 8, !tbaa !10
  store i32 0, ptr %7, align 4, !tbaa !11
  br label %44

44:                                               ; preds = %71, %31
  %45 = load i32, ptr %7, align 4, !tbaa !11
  %46 = icmp slt i32 %45, 5
  br i1 %46, label %47, label %74

47:                                               ; preds = %44
  call void @llvm.lifetime.start.p0(i64 4, ptr %17) #7
  %48 = load i32, ptr %7, align 4, !tbaa !11
  %49 = icmp eq i32 %48, 0
  br i1 %49, label %50, label %55

50:                                               ; preds = %47
  %51 = load ptr, ptr %15, align 8, !tbaa !10
  %52 = getelementptr inbounds nuw %struct.VP8LHistogram, ptr %51, i32 0, i32 5
  %53 = load i32, ptr %52, align 8, !tbaa !146
  %54 = call i32 @VP8LHistogramNumCodes(i32 noundef %53)
  br label %59

55:                                               ; preds = %47
  %56 = load i32, ptr %7, align 4, !tbaa !11
  %57 = icmp eq i32 %56, 4
  %58 = select i1 %57, i32 40, i32 256
  br label %59

59:                                               ; preds = %55, %50
  %60 = phi i32 [ %54, %50 ], [ %58, %55 ]
  store i32 %60, ptr %17, align 4, !tbaa !11
  %61 = load i32, ptr %17, align 4, !tbaa !11
  %62 = load ptr, ptr %16, align 8, !tbaa !10
  %63 = load i32, ptr %7, align 4, !tbaa !11
  %64 = sext i32 %63 to i64
  %65 = getelementptr inbounds %struct.HuffmanTreeCode, ptr %62, i64 %64
  %66 = getelementptr inbounds nuw %struct.HuffmanTreeCode, ptr %65, i32 0, i32 0
  store i32 %61, ptr %66, align 8, !tbaa !135
  %67 = load i32, ptr %17, align 4, !tbaa !11
  %68 = sext i32 %67 to i64
  %69 = load i64, ptr %9, align 8, !tbaa !79
  %70 = add i64 %69, %68
  store i64 %70, ptr %9, align 8, !tbaa !79
  call void @llvm.lifetime.end.p0(i64 4, ptr %17) #7
  br label %71

71:                                               ; preds = %59
  %72 = load i32, ptr %7, align 4, !tbaa !11
  %73 = add nsw i32 %72, 1
  store i32 %73, ptr %7, align 4, !tbaa !11
  br label %44, !llvm.loop !148

74:                                               ; preds = %44
  call void @llvm.lifetime.end.p0(i64 8, ptr %16) #7
  call void @llvm.lifetime.end.p0(i64 8, ptr %15) #7
  br label %75

75:                                               ; preds = %74
  %76 = load i32, ptr %6, align 4, !tbaa !11
  %77 = add nsw i32 %76, 1
  store i32 %77, ptr %6, align 4, !tbaa !11
  br label %27, !llvm.loop !149

78:                                               ; preds = %27
  call void @llvm.lifetime.start.p0(i64 8, ptr %18) #7
  call void @llvm.lifetime.start.p0(i64 8, ptr %19) #7
  %79 = load i64, ptr %9, align 8, !tbaa !79
  %80 = call ptr @WebPSafeCalloc(i64 noundef %79, i64 noundef 3)
  store ptr %80, ptr %10, align 8, !tbaa !81
  %81 = load ptr, ptr %10, align 8, !tbaa !81
  %82 = icmp eq ptr %81, null
  br i1 %82, label %83, label %84

83:                                               ; preds = %78
  store i32 8, ptr %21, align 4
  br label %131

84:                                               ; preds = %78
  %85 = load ptr, ptr %10, align 8, !tbaa !81
  store ptr %85, ptr %18, align 8, !tbaa !150
  %86 = load ptr, ptr %18, align 8, !tbaa !150
  %87 = load i64, ptr %9, align 8, !tbaa !79
  %88 = getelementptr inbounds nuw i16, ptr %86, i64 %87
  store ptr %88, ptr %19, align 8, !tbaa !81
  store i32 0, ptr %6, align 4, !tbaa !11
  br label %89

89:                                               ; preds = %127, %84
  %90 = load i32, ptr %6, align 4, !tbaa !11
  %91 = load i32, ptr %11, align 4, !tbaa !11
  %92 = mul nsw i32 5, %91
  %93 = icmp slt i32 %90, %92
  br i1 %93, label %94, label %130

94:                                               ; preds = %89
  call void @llvm.lifetime.start.p0(i64 4, ptr %20) #7
  %95 = load ptr, ptr %5, align 8, !tbaa !10
  %96 = load i32, ptr %6, align 4, !tbaa !11
  %97 = sext i32 %96 to i64
  %98 = getelementptr inbounds %struct.HuffmanTreeCode, ptr %95, i64 %97
  %99 = getelementptr inbounds nuw %struct.HuffmanTreeCode, ptr %98, i32 0, i32 0
  %100 = load i32, ptr %99, align 8, !tbaa !135
  store i32 %100, ptr %20, align 4, !tbaa !11
  %101 = load ptr, ptr %18, align 8, !tbaa !150
  %102 = load ptr, ptr %5, align 8, !tbaa !10
  %103 = load i32, ptr %6, align 4, !tbaa !11
  %104 = sext i32 %103 to i64
  %105 = getelementptr inbounds %struct.HuffmanTreeCode, ptr %102, i64 %104
  %106 = getelementptr inbounds nuw %struct.HuffmanTreeCode, ptr %105, i32 0, i32 2
  store ptr %101, ptr %106, align 8, !tbaa !140
  %107 = load ptr, ptr %19, align 8, !tbaa !81
  %108 = load ptr, ptr %5, align 8, !tbaa !10
  %109 = load i32, ptr %6, align 4, !tbaa !11
  %110 = sext i32 %109 to i64
  %111 = getelementptr inbounds %struct.HuffmanTreeCode, ptr %108, i64 %110
  %112 = getelementptr inbounds nuw %struct.HuffmanTreeCode, ptr %111, i32 0, i32 1
  store ptr %107, ptr %112, align 8, !tbaa !151
  %113 = load i32, ptr %20, align 4, !tbaa !11
  %114 = load ptr, ptr %18, align 8, !tbaa !150
  %115 = sext i32 %113 to i64
  %116 = getelementptr inbounds i16, ptr %114, i64 %115
  store ptr %116, ptr %18, align 8, !tbaa !150
  %117 = load i32, ptr %20, align 4, !tbaa !11
  %118 = load ptr, ptr %19, align 8, !tbaa !81
  %119 = sext i32 %117 to i64
  %120 = getelementptr inbounds i8, ptr %118, i64 %119
  store ptr %120, ptr %19, align 8, !tbaa !81
  %121 = load i32, ptr %12, align 4, !tbaa !11
  %122 = load i32, ptr %20, align 4, !tbaa !11
  %123 = icmp slt i32 %121, %122
  br i1 %123, label %124, label %126

124:                                              ; preds = %94
  %125 = load i32, ptr %20, align 4, !tbaa !11
  store i32 %125, ptr %12, align 4, !tbaa !11
  br label %126

126:                                              ; preds = %124, %94
  call void @llvm.lifetime.end.p0(i64 4, ptr %20) #7
  br label %127

127:                                              ; preds = %126
  %128 = load i32, ptr %6, align 4, !tbaa !11
  %129 = add nsw i32 %128, 1
  store i32 %129, ptr %6, align 4, !tbaa !11
  br label %89, !llvm.loop !152

130:                                              ; preds = %89
  store i32 0, ptr %21, align 4
  br label %131

131:                                              ; preds = %83, %130
  call void @llvm.lifetime.end.p0(i64 8, ptr %19) #7
  call void @llvm.lifetime.end.p0(i64 8, ptr %18) #7
  %132 = load i32, ptr %21, align 4
  switch i32 %132, label %218 [
    i32 0, label %133
    i32 8, label %204
  ]

133:                                              ; preds = %131
  %134 = load i32, ptr %12, align 4, !tbaa !11
  %135 = sext i32 %134 to i64
  %136 = call ptr @WebPSafeMalloc(i64 noundef 1, i64 noundef %135)
  store ptr %136, ptr %13, align 8, !tbaa !81
  %137 = load i32, ptr %12, align 4, !tbaa !11
  %138 = sext i32 %137 to i64
  %139 = mul i64 3, %138
  %140 = call ptr @WebPSafeMalloc(i64 noundef %139, i64 noundef 16)
  store ptr %140, ptr %14, align 8, !tbaa !10
  %141 = load ptr, ptr %13, align 8, !tbaa !81
  %142 = icmp eq ptr %141, null
  br i1 %142, label %146, label %143

143:                                              ; preds = %133
  %144 = load ptr, ptr %14, align 8, !tbaa !10
  %145 = icmp eq ptr %144, null
  br i1 %145, label %146, label %147

146:                                              ; preds = %143, %133
  br label %204

147:                                              ; preds = %143
  store i32 0, ptr %6, align 4, !tbaa !11
  br label %148

148:                                              ; preds = %200, %147
  %149 = load i32, ptr %6, align 4, !tbaa !11
  %150 = load i32, ptr %11, align 4, !tbaa !11
  %151 = icmp slt i32 %149, %150
  br i1 %151, label %152, label %203

152:                                              ; preds = %148
  call void @llvm.lifetime.start.p0(i64 8, ptr %22) #7
  %153 = load ptr, ptr %5, align 8, !tbaa !10
  %154 = load i32, ptr %6, align 4, !tbaa !11
  %155 = mul nsw i32 5, %154
  %156 = sext i32 %155 to i64
  %157 = getelementptr inbounds %struct.HuffmanTreeCode, ptr %153, i64 %156
  store ptr %157, ptr %22, align 8, !tbaa !10
  call void @llvm.lifetime.start.p0(i64 8, ptr %23) #7
  %158 = load ptr, ptr %4, align 8, !tbaa !10
  %159 = getelementptr inbounds nuw %struct.VP8LHistogramSet, ptr %158, i32 0, i32 2
  %160 = load ptr, ptr %159, align 8, !tbaa !143
  %161 = load i32, ptr %6, align 4, !tbaa !11
  %162 = sext i32 %161 to i64
  %163 = getelementptr inbounds ptr, ptr %160, i64 %162
  %164 = load ptr, ptr %163, align 8, !tbaa !10
  store ptr %164, ptr %23, align 8, !tbaa !10
  %165 = load ptr, ptr %23, align 8, !tbaa !10
  %166 = getelementptr inbounds nuw %struct.VP8LHistogram, ptr %165, i32 0, i32 0
  %167 = load ptr, ptr %166, align 8, !tbaa !153
  %168 = load ptr, ptr %13, align 8, !tbaa !81
  %169 = load ptr, ptr %14, align 8, !tbaa !10
  %170 = load ptr, ptr %22, align 8, !tbaa !10
  %171 = getelementptr inbounds %struct.HuffmanTreeCode, ptr %170, i64 0
  call void @VP8LCreateHuffmanTree(ptr noundef %167, i32 noundef 15, ptr noundef %168, ptr noundef %169, ptr noundef %171)
  %172 = load ptr, ptr %23, align 8, !tbaa !10
  %173 = getelementptr inbounds nuw %struct.VP8LHistogram, ptr %172, i32 0, i32 1
  %174 = getelementptr inbounds [256 x i32], ptr %173, i64 0, i64 0
  %175 = load ptr, ptr %13, align 8, !tbaa !81
  %176 = load ptr, ptr %14, align 8, !tbaa !10
  %177 = load ptr, ptr %22, align 8, !tbaa !10
  %178 = getelementptr inbounds %struct.HuffmanTreeCode, ptr %177, i64 1
  call void @VP8LCreateHuffmanTree(ptr noundef %174, i32 noundef 15, ptr noundef %175, ptr noundef %176, ptr noundef %178)
  %179 = load ptr, ptr %23, align 8, !tbaa !10
  %180 = getelementptr inbounds nuw %struct.VP8LHistogram, ptr %179, i32 0, i32 2
  %181 = getelementptr inbounds [256 x i32], ptr %180, i64 0, i64 0
  %182 = load ptr, ptr %13, align 8, !tbaa !81
  %183 = load ptr, ptr %14, align 8, !tbaa !10
  %184 = load ptr, ptr %22, align 8, !tbaa !10
  %185 = getelementptr inbounds %struct.HuffmanTreeCode, ptr %184, i64 2
  call void @VP8LCreateHuffmanTree(ptr noundef %181, i32 noundef 15, ptr noundef %182, ptr noundef %183, ptr noundef %185)
  %186 = load ptr, ptr %23, align 8, !tbaa !10
  %187 = getelementptr inbounds nuw %struct.VP8LHistogram, ptr %186, i32 0, i32 3
  %188 = getelementptr inbounds [256 x i32], ptr %187, i64 0, i64 0
  %189 = load ptr, ptr %13, align 8, !tbaa !81
  %190 = load ptr, ptr %14, align 8, !tbaa !10
  %191 = load ptr, ptr %22, align 8, !tbaa !10
  %192 = getelementptr inbounds %struct.HuffmanTreeCode, ptr %191, i64 3
  call void @VP8LCreateHuffmanTree(ptr noundef %188, i32 noundef 15, ptr noundef %189, ptr noundef %190, ptr noundef %192)
  %193 = load ptr, ptr %23, align 8, !tbaa !10
  %194 = getelementptr inbounds nuw %struct.VP8LHistogram, ptr %193, i32 0, i32 4
  %195 = getelementptr inbounds [40 x i32], ptr %194, i64 0, i64 0
  %196 = load ptr, ptr %13, align 8, !tbaa !81
  %197 = load ptr, ptr %14, align 8, !tbaa !10
  %198 = load ptr, ptr %22, align 8, !tbaa !10
  %199 = getelementptr inbounds %struct.HuffmanTreeCode, ptr %198, i64 4
  call void @VP8LCreateHuffmanTree(ptr noundef %195, i32 noundef 15, ptr noundef %196, ptr noundef %197, ptr noundef %199)
  call void @llvm.lifetime.end.p0(i64 8, ptr %23) #7
  call void @llvm.lifetime.end.p0(i64 8, ptr %22) #7
  br label %200

200:                                              ; preds = %152
  %201 = load i32, ptr %6, align 4, !tbaa !11
  %202 = add nsw i32 %201, 1
  store i32 %202, ptr %6, align 4, !tbaa !11
  br label %148, !llvm.loop !154

203:                                              ; preds = %148
  store i32 1, ptr %8, align 4, !tbaa !11
  br label %204

204:                                              ; preds = %203, %131, %146
  %205 = load ptr, ptr %14, align 8, !tbaa !10
  call void @WebPSafeFree(ptr noundef %205)
  %206 = load ptr, ptr %13, align 8, !tbaa !81
  call void @WebPSafeFree(ptr noundef %206)
  %207 = load i32, ptr %8, align 4, !tbaa !11
  %208 = icmp ne i32 %207, 0
  br i1 %208, label %216, label %209

209:                                              ; preds = %204
  %210 = load ptr, ptr %10, align 8, !tbaa !81
  call void @WebPSafeFree(ptr noundef %210)
  %211 = load ptr, ptr %5, align 8, !tbaa !10
  %212 = load i32, ptr %11, align 4, !tbaa !11
  %213 = mul nsw i32 5, %212
  %214 = sext i32 %213 to i64
  %215 = mul i64 %214, 24
  call void @llvm.memset.p0.i64(ptr align 8 %211, i8 0, i64 %215, i1 false)
  br label %216

216:                                              ; preds = %209, %204
  %217 = load i32, ptr %8, align 4, !tbaa !11
  store i32 %217, ptr %3, align 4
  store i32 1, ptr %21, align 4
  br label %218

218:                                              ; preds = %216, %131
  call void @llvm.lifetime.end.p0(i64 8, ptr %14) #7
  call void @llvm.lifetime.end.p0(i64 8, ptr %13) #7
  call void @llvm.lifetime.end.p0(i64 4, ptr %12) #7
  call void @llvm.lifetime.end.p0(i64 4, ptr %11) #7
  call void @llvm.lifetime.end.p0(i64 8, ptr %10) #7
  call void @llvm.lifetime.end.p0(i64 8, ptr %9) #7
  call void @llvm.lifetime.end.p0(i64 4, ptr %8) #7
  call void @llvm.lifetime.end.p0(i64 4, ptr %7) #7
  call void @llvm.lifetime.end.p0(i64 4, ptr %6) #7
  %219 = load i32, ptr %3, align 4
  ret i32 %219
}