; Function Attrs: nounwind uwtable
define internal fastcc range(i32 0, 2) i32 @GetHuffBitLengthsAndCodes(ptr noundef nonnull readonly captures(none) %0, ptr noundef nonnull %1) unnamed_addr #0 {
  %3 = load i32, ptr %0, align 8, !tbaa !117
  %4 = icmp sgt i32 %3, 0
  br i1 %4, label %.lr.ph, label %._crit_edge.thread

.lr.ph:                                           ; preds = %2
  %5 = getelementptr inbounds nuw i8, ptr %0, i64 8
  %6 = load ptr, ptr %5, align 8, !tbaa !149
  %wide.trip.count = zext nneg i32 %3 to i64
  br label %7

7:                                                ; preds = %.lr.ph, %28
  %indvars.iv119 = phi i64 [ 0, %.lr.ph ], [ %indvars.iv.next120, %28 ]
  %.087106 = phi i64 [ 0, %.lr.ph ], [ %27, %28 ]
  %8 = getelementptr inbounds nuw ptr, ptr %6, i64 %indvars.iv119
  %9 = load ptr, ptr %8, align 8, !tbaa !99
  %.idx = mul nuw nsw i64 %indvars.iv119, 120
  %10 = getelementptr inbounds nuw i8, ptr %1, i64 %.idx
  %11 = getelementptr inbounds nuw i8, ptr %9, i64 3240
  br label %12

12:                                               ; preds = %7, %23
  %indvars.iv = phi i64 [ 0, %7 ], [ %indvars.iv.next, %23 ]
  %.188104 = phi i64 [ %.087106, %7 ], [ %27, %23 ]
  %13 = icmp eq i64 %indvars.iv, 0
  br i1 %13, label %14, label %20

14:                                               ; preds = %12
  %15 = load i32, ptr %11, align 8, !tbaa !152
  %16 = icmp sgt i32 %15, 0
  %17 = shl nuw i32 1, %15
  %18 = add nuw nsw i32 %17, 280
  %19 = select i1 %16, i32 %18, i32 280
  br label %23

20:                                               ; preds = %12
  %21 = icmp eq i64 %indvars.iv, 4
  %22 = select i1 %21, i32 40, i32 256
  br label %23

23:                                               ; preds = %20, %14
  %24 = phi i32 [ %19, %14 ], [ %22, %20 ]
  %25 = getelementptr inbounds nuw %struct.HuffmanTreeCode, ptr %10, i64 %indvars.iv
  store i32 %24, ptr %25, align 8, !tbaa !120
  %26 = sext i32 %24 to i64
  %27 = add i64 %.188104, %26
  %indvars.iv.next = add nuw nsw i64 %indvars.iv, 1
  %exitcond.not = icmp eq i64 %indvars.iv.next, 5
  br i1 %exitcond.not, label %28, label %12, !llvm.loop !154

28:                                               ; preds = %23
  %indvars.iv.next120 = add nuw nsw i64 %indvars.iv119, 1
  %exitcond122.not = icmp eq i64 %indvars.iv.next120, %wide.trip.count
  br i1 %exitcond122.not, label %._crit_edge, label %7, !llvm.loop !155

._crit_edge:                                      ; preds = %28
  %29 = tail call ptr @WebPSafeCalloc(i64 noundef %27, i64 noundef 3) #8
  %30 = icmp eq ptr %29, null
  br i1 %30, label %.loopexit, label %.lr.ph113.preheader

._crit_edge.thread:                               ; preds = %2
  %31 = tail call ptr @WebPSafeCalloc(i64 noundef 0, i64 noundef 3) #8
  %32 = icmp eq ptr %31, null
  br i1 %32, label %.loopexit, label %._crit_edge114

.lr.ph113.preheader:                              ; preds = %._crit_edge
  %33 = mul i32 %3, 5
  %34 = getelementptr inbounds nuw i16, ptr %29, i64 %27
  %smax = tail call i32 @llvm.smax.i32(i32 %33, i32 1)
  %wide.trip.count126 = zext nneg i32 %smax to i64
  br label %.lr.ph113

.lr.ph113:                                        ; preds = %.lr.ph113.preheader, %.lr.ph113
  %indvars.iv123 = phi i64 [ 0, %.lr.ph113.preheader ], [ %indvars.iv.next124, %.lr.ph113 ]
  %.084110 = phi ptr [ %34, %.lr.ph113.preheader ], [ %41, %.lr.ph113 ]
  %.085109 = phi ptr [ %29, %.lr.ph113.preheader ], [ %40, %.lr.ph113 ]
  %.192108 = phi i32 [ 0, %.lr.ph113.preheader ], [ %spec.select, %.lr.ph113 ]
  %35 = getelementptr inbounds nuw %struct.HuffmanTreeCode, ptr %1, i64 %indvars.iv123
  %36 = load i32, ptr %35, align 8, !tbaa !120
  %37 = getelementptr inbounds nuw i8, ptr %35, i64 16
  store ptr %.085109, ptr %37, align 8, !tbaa !126
  %38 = getelementptr inbounds nuw i8, ptr %35, i64 8
  store ptr %.084110, ptr %38, align 8, !tbaa !124
  %39 = sext i32 %36 to i64
  %40 = getelementptr inbounds i16, ptr %.085109, i64 %39
  %41 = getelementptr inbounds i8, ptr %.084110, i64 %39
  %spec.select = tail call i32 @llvm.smax.i32(i32 %.192108, i32 %36)
  %indvars.iv.next124 = add nuw nsw i64 %indvars.iv123, 1
  %exitcond127.not = icmp eq i64 %indvars.iv.next124, %wide.trip.count126
  br i1 %exitcond127.not, label %._crit_edge114.loopexit, label %.lr.ph113, !llvm.loop !156

._crit_edge114.loopexit:                          ; preds = %.lr.ph113
  %42 = zext nneg i32 %spec.select to i64
  br label %._crit_edge114

._crit_edge114:                                   ; preds = %._crit_edge.thread, %._crit_edge114.loopexit
  %43 = phi ptr [ %29, %._crit_edge114.loopexit ], [ %31, %._crit_edge.thread ]
  %.192.lcssa = phi i64 [ %42, %._crit_edge114.loopexit ], [ 0, %._crit_edge.thread ]
  %44 = tail call ptr @WebPSafeMalloc(i64 noundef 1, i64 noundef %.192.lcssa) #8
  %45 = mul nuw nsw i64 %.192.lcssa, 3
  %46 = tail call ptr @WebPSafeMalloc(i64 noundef %45, i64 noundef 16) #8
  %47 = icmp eq ptr %44, null
  %48 = icmp eq ptr %46, null
  %or.cond = select i1 %47, i1 true, i1 %48
  br i1 %or.cond, label %.loopexit, label %.preheader

.preheader:                                       ; preds = %._crit_edge114
  br i1 %4, label %.lr.ph117, label %.loopexit

.lr.ph117:                                        ; preds = %.preheader
  %49 = getelementptr inbounds nuw i8, ptr %0, i64 8
  %wide.trip.count131 = zext nneg i32 %3 to i64
  br label %50

50:                                               ; preds = %.lr.ph117, %50
  %indvars.iv128 = phi i64 [ 0, %.lr.ph117 ], [ %indvars.iv.next129, %50 ]
  %.idx133 = mul nuw nsw i64 %indvars.iv128, 120
  %51 = getelementptr inbounds nuw i8, ptr %1, i64 %.idx133
  %52 = load ptr, ptr %49, align 8, !tbaa !149
  %53 = getelementptr inbounds nuw ptr, ptr %52, i64 %indvars.iv128
  %54 = load ptr, ptr %53, align 8, !tbaa !99
  %55 = load ptr, ptr %54, align 8, !tbaa !157
  tail call void @VP8LCreateHuffmanTree(ptr noundef %55, i32 noundef 15, ptr noundef %44, ptr noundef %46, ptr noundef nonnull %51) #8
  %56 = getelementptr inbounds nuw i8, ptr %54, i64 8
  %57 = getelementptr inbounds nuw i8, ptr %51, i64 24
  tail call void @VP8LCreateHuffmanTree(ptr noundef nonnull %56, i32 noundef 15, ptr noundef %44, ptr noundef %46, ptr noundef nonnull %57) #8
  %58 = getelementptr inbounds nuw i8, ptr %54, i64 1032
  %59 = getelementptr inbounds nuw i8, ptr %51, i64 48
  tail call void @VP8LCreateHuffmanTree(ptr noundef nonnull %58, i32 noundef 15, ptr noundef %44, ptr noundef %46, ptr noundef nonnull %59) #8
  %60 = getelementptr inbounds nuw i8, ptr %54, i64 2056
  %61 = getelementptr inbounds nuw i8, ptr %51, i64 72
  tail call void @VP8LCreateHuffmanTree(ptr noundef nonnull %60, i32 noundef 15, ptr noundef %44, ptr noundef %46, ptr noundef nonnull %61) #8
  %62 = getelementptr inbounds nuw i8, ptr %54, i64 3080
  %63 = getelementptr inbounds nuw i8, ptr %51, i64 96
  tail call void @VP8LCreateHuffmanTree(ptr noundef nonnull %62, i32 noundef 15, ptr noundef %44, ptr noundef %46, ptr noundef nonnull %63) #8
  %indvars.iv.next129 = add nuw nsw i64 %indvars.iv128, 1
  %exitcond132.not = icmp eq i64 %indvars.iv.next129, %wide.trip.count131
  br i1 %exitcond132.not, label %.loopexit, label %50, !llvm.loop !158

.loopexit:                                        ; preds = %50, %._crit_edge.thread, %.preheader, %._crit_edge, %._crit_edge114
  %64 = phi ptr [ %43, %._crit_edge114 ], [ null, %._crit_edge ], [ %43, %.preheader ], [ null, %._crit_edge.thread ], [ %43, %50 ]
  %.090 = phi ptr [ %44, %._crit_edge114 ], [ null, %._crit_edge ], [ %44, %.preheader ], [ null, %._crit_edge.thread ], [ %44, %50 ]
  %.089 = phi ptr [ %46, %._crit_edge114 ], [ null, %._crit_edge ], [ %46, %.preheader ], [ null, %._crit_edge.thread ], [ %46, %50 ]
  %.not = phi i1 [ true, %._crit_edge114 ], [ true, %._crit_edge ], [ false, %.preheader ], [ true, %._crit_edge.thread ], [ false, %50 ]
  %.086 = phi i32 [ 0, %._crit_edge114 ], [ 0, %._crit_edge ], [ 1, %.preheader ], [ 0, %._crit_edge.thread ], [ 1, %50 ]
  tail call void @WebPSafeFree(ptr noundef %.089) #8
  tail call void @WebPSafeFree(ptr noundef %.090) #8
  br i1 %.not, label %65, label %69

65:                                               ; preds = %.loopexit
  tail call void @WebPSafeFree(ptr noundef %64) #8
  %66 = mul nsw i32 %3, 5
  %67 = sext i32 %66 to i64
  %68 = mul nsw i64 %67, 24
  tail call void @llvm.memset.p0.i64(ptr nonnull align 8 %1, i8 0, i64 %68, i1 false)
  br label %69

69:                                               ; preds = %.loopexit, %65
  ret i32 %.086
}